; Function Attrs: mustprogress nounwind uwtable
define internal void @_ZN12_GLOBAL__N_116TypeNameComputer16visitKnownRecordERN4llvm8codeview8CVRecordINS2_12TypeLeafKindEEERNS2_13VFTableRecordE(ptr dead_on_unwind noalias nocapture writable writeonly sret(%"class.llvm::Error") align 8 %0, ptr noundef nonnull align 8 dereferenceable(304) %1, ptr nocapture nonnull readnone align 8 %2, ptr nocapture noundef nonnull readonly align 8 dereferenceable(40) %3) unnamed_addr #0 align 2 {
_ZN4llvm12ErrorSuccessD2Ev.exit:
  %4 = getelementptr inbounds nuw i8, ptr %3, i64 16
  %5 = load ptr, ptr %4, align 8
  %.sroa.0.0.copyload.i = load ptr, ptr %5, align 8
  %.sroa.2.0..sroa_idx.i = getelementptr inbounds i8, ptr %5, i64 8
  %.sroa.2.0.copyload.i = load i64, ptr %.sroa.2.0..sroa_idx.i, align 8
  %6 = getelementptr inbounds nuw i8, ptr %1, i64 24
  %7 = getelementptr inbounds i8, ptr %.sroa.0.0.copyload.i, i64 %.sroa.2.0.copyload.i
  %8 = tail call noundef i64 @_ZNK4llvm15SmallVectorBaseImE4sizeEv(ptr noundef nonnull align 8 dereferenceable(24) %6) #16
  %9 = getelementptr inbounds i8, ptr %1, i64 32
  store i64 0, ptr %9, align 8
  tail call void @_ZN4llvm15SmallVectorImplIcE6appendIPKcvEEvT_S5_(ptr noundef nonnull align 8 dereferenceable(24) %6, ptr noundef %.sroa.0.0.copyload.i, ptr noundef %7)
  store ptr null, ptr %0, align 8
  ret void
}